; Function Attrs: nofree nounwind uwtable
define void @mult_dense_mat(ptr noundef readonly captures(none) %0, ptr noundef readonly captures(none) %1, i32 noundef %2, i32 noundef %3, i32 noundef %4, ptr noundef writeonly captures(none) %5) local_unnamed_addr #8 {
  %7 = mul nsw i32 %4, %2
  %8 = sext i32 %7 to i64
  %.not.i = icmp eq i32 %7, 0
  br i1 %.not.i, label %.thread.i, label %10

.thread.i:                                        ; preds = %6
  %9 = tail call noalias ptr @calloc(i64 noundef 0, i64 noundef 8) #20
  br label %gv_calloc.exit

10:                                               ; preds = %6
  %mul.ov.i = icmp slt i32 %7, 0
  br i1 %mul.ov.i, label %11, label %14

11:                                               ; preds = %10
  %12 = load ptr, ptr @stderr, align 8, !tbaa !3
  %13 = tail call i32 (ptr, ptr, ...) @fprintf(ptr noundef %12, ptr noundef nonnull @.str, i64 noundef range(i64 -2147483648, 2147483648) %8, i64 noundef 8) #18
  tail call fastcc void @graphviz_exit() #19
  unreachable

14:                                               ; preds = %10
  %15 = tail call noalias ptr @calloc(i64 noundef range(i64 -2147483648, 2147483648) %8, i64 noundef 8) #20
  %16 = icmp eq ptr %15, null
  br i1 %16, label %17, label %gv_calloc.exit

17:                                               ; preds = %14
  %18 = load ptr, ptr @stderr, align 8, !tbaa !3
  %19 = shl nuw nsw i64 %8, 3
  %20 = tail call i32 (ptr, ptr, ...) @fprintf(ptr noundef %18, ptr noundef nonnull @.str.1, i64 noundef %19) #18
  tail call fastcc void @graphviz_exit() #19
  unreachable

gv_calloc.exit:                                   ; preds = %.thread.i, %14
  %21 = phi ptr [ %9, %.thread.i ], [ %15, %14 ]
  %22 = sext i32 %2 to i64
  %.not.i36 = icmp eq i32 %2, 0
  br i1 %.not.i36, label %.preheader42.thread, label %23

23:                                               ; preds = %gv_calloc.exit
  %mul.ov.i38 = icmp slt i32 %2, 0
  br i1 %mul.ov.i38, label %24, label %27

24:                                               ; preds = %23
  %25 = load ptr, ptr @stderr, align 8, !tbaa !3
  %26 = tail call i32 (ptr, ptr, ...) @fprintf(ptr noundef %25, ptr noundef nonnull @.str, i64 noundef range(i64 -2147483648, 2147483648) %22, i64 noundef 8) #18
  tail call fastcc void @graphviz_exit() #19
  unreachable

27:                                               ; preds = %23
  %28 = tail call noalias ptr @calloc(i64 noundef range(i64 -2147483648, 2147483648) %22, i64 noundef 8) #20
  %29 = icmp eq ptr %28, null
  br i1 %29, label %30, label %.lr.ph

30:                                               ; preds = %27
  %31 = load ptr, ptr @stderr, align 8, !tbaa !3
  %32 = shl nuw nsw i64 %22, 3
  %33 = tail call i32 (ptr, ptr, ...) @fprintf(ptr noundef %31, ptr noundef nonnull @.str.1, i64 noundef %32) #18
  tail call fastcc void @graphviz_exit() #19
  unreachable

.preheader42.thread:                              ; preds = %gv_calloc.exit
  %34 = tail call noalias ptr @calloc(i64 noundef 0, i64 noundef 8) #20
  store ptr %34, ptr %5, align 8, !tbaa !31
  br label %._crit_edge

.lr.ph:                                           ; preds = %27
  store ptr %28, ptr %5, align 8, !tbaa !31
  %35 = sext i32 %4 to i64
  %wide.trip.count = zext nneg i32 %2 to i64
  br label %57

.preheader41.lr.ph:                               ; preds = %57
  %36 = icmp sgt i32 %4, 0
  br i1 %36, label %.preheader41.lr.ph.split.us, label %._crit_edge

.preheader41.lr.ph.split.us:                      ; preds = %.preheader41.lr.ph
  %37 = icmp sgt i32 %3, 0
  br i1 %37, label %.preheader41.us.us.preheader, label %.preheader41.us.preheader

.preheader41.us.preheader:                        ; preds = %.preheader41.lr.ph.split.us
  %38 = zext nneg i32 %4 to i64
  %39 = shl nuw nsw i64 %38, 2
  %wide.trip.count64 = zext nneg i32 %2 to i64
  br label %.preheader41.us

.preheader41.us.us.preheader:                     ; preds = %.preheader41.lr.ph.split.us
  %wide.trip.count79 = zext nneg i32 %2 to i64
  %wide.trip.count74 = zext nneg i32 %4 to i64
  %wide.trip.count69 = zext nneg i32 %3 to i64
  br label %.preheader41.us.us

.preheader41.us.us:                               ; preds = %.preheader41.us.us.preheader, %._crit_edge49.split.us.us.us
  %indvars.iv76 = phi i64 [ 0, %.preheader41.us.us.preheader ], [ %indvars.iv.next77, %._crit_edge49.split.us.us.us ]
  %40 = getelementptr inbounds nuw ptr, ptr %0, i64 %indvars.iv76
  %41 = getelementptr inbounds nuw ptr, ptr %28, i64 %indvars.iv76
  %42 = load ptr, ptr %41, align 8, !tbaa !33
  %43 = load ptr, ptr %40, align 8, !tbaa !8
  br label %.preheader.us.us.us

.preheader.us.us.us:                              ; preds = %._crit_edge.us.us.us, %.preheader41.us.us
  %indvars.iv71 = phi i64 [ %indvars.iv.next72, %._crit_edge.us.us.us ], [ 0, %.preheader41.us.us ]
  br label %44

44:                                               ; preds = %44, %.preheader.us.us.us
  %indvars.iv66 = phi i64 [ %indvars.iv.next67, %44 ], [ 0, %.preheader.us.us.us ]
  %.046.us.us.us = phi double [ %52, %44 ], [ 0.000000e+00, %.preheader.us.us.us ]
  %45 = getelementptr inbounds nuw double, ptr %43, i64 %indvars.iv66
  %46 = load double, ptr %45, align 8, !tbaa !10
  %47 = getelementptr inbounds nuw ptr, ptr %1, i64 %indvars.iv66
  %48 = load ptr, ptr %47, align 8, !tbaa !33
  %49 = getelementptr inbounds nuw float, ptr %48, i64 %indvars.iv71
  %50 = load float, ptr %49, align 4, !tbaa !35
  %51 = fpext float %50 to double
  %52 = tail call double @llvm.fmuladd.f64(double %46, double %51, double %.046.us.us.us)
  %indvars.iv.next67 = add nuw nsw i64 %indvars.iv66, 1
  %exitcond70.not = icmp eq i64 %indvars.iv.next67, %wide.trip.count69
  br i1 %exitcond70.not, label %._crit_edge.us.us.us, label %44, !llvm.loop !37

._crit_edge.us.us.us:                             ; preds = %44
  %53 = fptrunc double %52 to float
  %54 = getelementptr inbounds nuw float, ptr %42, i64 %indvars.iv71
  store float %53, ptr %54, align 4, !tbaa !35
  %indvars.iv.next72 = add nuw nsw i64 %indvars.iv71, 1
  %exitcond75.not = icmp eq i64 %indvars.iv.next72, %wide.trip.count74
  br i1 %exitcond75.not, label %._crit_edge49.split.us.us.us, label %.preheader.us.us.us, !llvm.loop !38

._crit_edge49.split.us.us.us:                     ; preds = %._crit_edge.us.us.us
  %indvars.iv.next77 = add nuw nsw i64 %indvars.iv76, 1
  %exitcond80.not = icmp eq i64 %indvars.iv.next77, %wide.trip.count79
  br i1 %exitcond80.not, label %._crit_edge, label %.preheader41.us.us, !llvm.loop !39

.preheader41.us:                                  ; preds = %.preheader41.us.preheader, %.preheader41.us
  %indvars.iv61 = phi i64 [ 0, %.preheader41.us.preheader ], [ %indvars.iv.next62, %.preheader41.us ]
  %55 = getelementptr inbounds nuw ptr, ptr %28, i64 %indvars.iv61
  %56 = load ptr, ptr %55, align 8, !tbaa !33
  tail call void @llvm.memset.p0.i64(ptr align 4 %56, i8 0, i64 %39, i1 false), !tbaa !35
  %indvars.iv.next62 = add nuw nsw i64 %indvars.iv61, 1
  %exitcond65.not = icmp eq i64 %indvars.iv.next62, %wide.trip.count64
  br i1 %exitcond65.not, label %._crit_edge, label %.preheader41.us, !llvm.loop !39

57:                                               ; preds = %.lr.ph, %57
  %indvars.iv = phi i64 [ 0, %.lr.ph ], [ %indvars.iv.next, %57 ]
  %.03144 = phi ptr [ %21, %.lr.ph ], [ %59, %57 ]
  %58 = getelementptr inbounds nuw ptr, ptr %28, i64 %indvars.iv
  store ptr %.03144, ptr %58, align 8, !tbaa !33
  %59 = getelementptr inbounds float, ptr %.03144, i64 %35
  %indvars.iv.next = add nuw nsw i64 %indvars.iv, 1
  %exitcond.not = icmp eq i64 %indvars.iv.next, %wide.trip.count
  br i1 %exitcond.not, label %.preheader41.lr.ph, label %57, !llvm.loop !40

._crit_edge:                                      ; preds = %.preheader41.us, %._crit_edge49.split.us.us.us, %.preheader41.lr.ph, %.preheader42.thread
  ret void
}